target datalayout = "e-m:e-p270:32:32-p271:32:32-p272:64:64-i64:64-i128:128-f80:128-n8:16:32:64-S128"
target triple = "x86_64-pc-linux-gnu"

%struct.RelationData = type { %struct.RelFileLocator, ptr, i32, i32, i8, i8, i8, i8, i8, i32, i32, i32, i32, ptr, ptr, i32, %struct.LockInfoData, ptr, ptr, ptr, ptr, ptr, i8, ptr, ptr, ptr, ptr, ptr, ptr, i32, ptr, i8, ptr, ptr, i32, i8, i32, ptr, i8, ptr, ptr, ptr, ptr, ptr, ptr, ptr, i32, ptr, ptr, ptr, ptr, ptr, ptr, ptr, ptr, ptr, ptr, ptr, ptr, ptr, ptr, ptr, ptr, ptr, ptr, ptr, i32, i8, ptr }
%struct.RelFileLocator = type { i32, i32, i32 }
%struct.LockInfoData = type { %struct.LockRelId }
%struct.LockRelId = type { i32, i32 }
%struct.FormData_pg_class = type { i32, %struct.nameData, i32, i32, i32, i32, i32, i32, i32, i32, float, i32, i32, i8, i8, i8, i8, i16, i16, i8, i8, i8, i8, i8, i8, i8, i8, i32, i32, i32 }
%struct.nameData = type { [64 x i8] }
%struct.IndexAmRoutine = type { i32, i16, i16, i16, i8, i8, i8, i8, i8, i8, i8, i8, i8, i8, i8, i8, i8, i8, i8, i8, i8, i32, ptr, ptr, ptr, ptr, ptr, ptr, ptr, ptr, ptr, ptr, ptr, ptr, ptr, ptr, ptr, ptr, ptr, ptr, ptr, ptr, ptr, ptr, ptr, ptr, ptr, ptr }
%struct.IndexScanDescData = type { ptr, ptr, ptr, i32, i32, ptr, ptr, i8, i8, i8, i8, i8, ptr, ptr, ptr, ptr, ptr, %struct.ItemPointerData, i8, ptr, i8, ptr, ptr, i8, ptr }
%struct.ItemPointerData = type { %struct.BlockIdData, i16 }
%struct.BlockIdData = type { i16, i16 }

@.str = private unnamed_addr constant [53 x i8] c"cannot access index \22%s\22 while it is being reindexed\00", align 1
@.str.1 = private unnamed_addr constant [10 x i8] c"indexam.c\00", align 1
@.str.2 = private unnamed_addr constant [44 x i8] c"function \22%s\22 is not defined for index \22%s\22\00", align 1
@__func__.index_beginscan_internal = private unnamed_addr constant [25 x i8] c"index_beginscan_internal\00", align 1
@.str.16 = private unnamed_addr constant [12 x i8] c"ambeginscan\00", align 1

; Function Attrs: nounwind uwtable
define internal ptr @index_beginscan_internal(ptr noundef %0, i32 noundef %1, i32 noundef %2, ptr noundef %3, ptr noundef %4, i1 noundef zeroext %5) #0 {
  %7 = alloca ptr, align 8
  %8 = alloca i32, align 4
  %9 = alloca i32, align 4
  %10 = alloca ptr, align 8
  %11 = alloca ptr, align 8
  %12 = alloca i8, align 1
  %13 = alloca ptr, align 8
  store ptr %0, ptr %7, align 8
  store i32 %1, ptr %8, align 4
  store i32 %2, ptr %9, align 4
  store ptr %3, ptr %10, align 8
  store ptr %4, ptr %11, align 8
  %14 = zext i1 %5 to i8
  store i8 %14, ptr %12, align 1
  call void @llvm.lifetime.start.p0(i64 8, ptr %13) #7
  br label %15

15:                                               ; preds = %6
  %16 = load ptr, ptr %7, align 8
  %17 = getelementptr inbounds nuw %struct.RelationData, ptr %16, i32 0, i32 15
  %18 = load i32, ptr %17, align 8
  %19 = call zeroext i1 @ReindexIsProcessingIndex(i32 noundef %18)
  %20 = zext i1 %19 to i32
  %21 = icmp ne i32 %20, 0
  %22 = zext i1 %21 to i32
  %23 = sext i32 %22 to i64
  %24 = call i64 @llvm.expect.i64(i64 %23, i64 0)
  %25 = icmp ne i64 %24, 0
  br i1 %25, label %26, label %44

26:                                               ; preds = %15
  br label %27

27:                                               ; preds = %26
  br i1 true, label %28, label %30

28:                                               ; preds = %27
  %29 = call zeroext i1 @errstart_cold(i32 noundef 21, ptr noundef null) #8
  br i1 %29, label %32, label %41

30:                                               ; preds = %27
  %31 = call zeroext i1 @errstart(i32 noundef 21, ptr noundef null)
  br i1 %31, label %32, label %41

32:                                               ; preds = %30, %28
  %33 = call i32 @errcode(i32 noundef 1088)
  %34 = load ptr, ptr %7, align 8
  %35 = getelementptr inbounds nuw %struct.RelationData, ptr %34, i32 0, i32 13
  %36 = load ptr, ptr %35, align 8
  %37 = getelementptr inbounds nuw %struct.FormData_pg_class, ptr %36, i32 0, i32 1
  %38 = getelementptr inbounds nuw %struct.nameData, ptr %37, i32 0, i32 0
  %39 = getelementptr inbounds [64 x i8], ptr %38, i64 0, i64 0
  %40 = call i32 (ptr, ...) @errmsg(ptr noundef @.str, ptr noundef %39)
  call void @errfinish(ptr noundef @.str.1, i32 noundef 316, ptr noundef @__func__.index_beginscan_internal)
  br label %41

41:                                               ; preds = %32, %30, %28
  unreachable

42:                                               ; No predecessors!
  br label %43

43:                                               ; preds = %42
  br label %44

44:                                               ; preds = %43, %15
  br label %45

45:                                               ; preds = %44
  br label %46

46:                                               ; preds = %45
  br label %47

47:                                               ; preds = %46
  %48 = load ptr, ptr %7, align 8
  %49 = getelementptr inbounds nuw %struct.RelationData, ptr %48, i32 0, i32 51
  %50 = load ptr, ptr %49, align 8
  %51 = getelementptr inbounds nuw %struct.IndexAmRoutine, ptr %50, i32 0, i32 36
  %52 = load ptr, ptr %51, align 8
  %53 = icmp eq ptr %52, null
  br i1 %53, label %54, label %71

54:                                               ; preds = %47
  br label %55

55:                                               ; preds = %54
  br i1 true, label %56, label %58

56:                                               ; preds = %55
  %57 = call zeroext i1 @errstart_cold(i32 noundef 21, ptr noundef null) #8
  br i1 %57, label %60, label %68

58:                                               ; preds = %55
  %59 = call zeroext i1 @errstart(i32 noundef 21, ptr noundef null)
  br i1 %59, label %60, label %68

60:                                               ; preds = %58, %56
  %61 = load ptr, ptr %7, align 8
  %62 = getelementptr inbounds nuw %struct.RelationData, ptr %61, i32 0, i32 13
  %63 = load ptr, ptr %62, align 8
  %64 = getelementptr inbounds nuw %struct.FormData_pg_class, ptr %63, i32 0, i32 1
  %65 = getelementptr inbounds nuw %struct.nameData, ptr %64, i32 0, i32 0
  %66 = getelementptr inbounds [64 x i8], ptr %65, i64 0, i64 0
  %67 = call i32 (ptr, ...) @errmsg_internal(ptr noundef @.str.2, ptr noundef @.str.16, ptr noundef %66)
  call void @errfinish(ptr noundef @.str.1, i32 noundef 317, ptr noundef @__func__.index_beginscan_internal)
  br label %68

68:                                               ; preds = %60, %58, %56
  unreachable

69:                                               ; No predecessors!
  br label %70

70:                                               ; preds = %69
  br label %71

71:                                               ; preds = %70, %47
  br label %72

72:                                               ; preds = %71
  br label %73

73:                                               ; preds = %72
  %74 = load ptr, ptr %7, align 8
  %75 = getelementptr inbounds nuw %struct.RelationData, ptr %74, i32 0, i32 51
  %76 = load ptr, ptr %75, align 8
  %77 = getelementptr inbounds nuw %struct.IndexAmRoutine, ptr %76, i32 0, i32 14
  %78 = load i8, ptr %77, align 4, !range !4, !noundef !5
  %79 = trunc i8 %78 to i1
  br i1 %79, label %83, label %80

80:                                               ; preds = %73
  %81 = load ptr, ptr %7, align 8
  %82 = load ptr, ptr %10, align 8
  call void @PredicateLockRelation(ptr noundef %81, ptr noundef %82)
  br label %83

83:                                               ; preds = %80, %73
  %84 = load ptr, ptr %7, align 8
  call void @RelationIncrementReferenceCount(ptr noundef %84)
  %85 = load ptr, ptr %7, align 8
  %86 = getelementptr inbounds nuw %struct.RelationData, ptr %85, i32 0, i32 51
  %87 = load ptr, ptr %86, align 8
  %88 = getelementptr inbounds nuw %struct.IndexAmRoutine, ptr %87, i32 0, i32 36
  %89 = load ptr, ptr %88, align 8
  %90 = load ptr, ptr %7, align 8
  %91 = load i32, ptr %8, align 4
  %92 = load i32, ptr %9, align 4
  %93 = call ptr %89(ptr noundef %90, i32 noundef %91, i32 noundef %92)
  store ptr %93, ptr %13, align 8
  %94 = load ptr, ptr %11, align 8
  %95 = load ptr, ptr %13, align 8
  %96 = getelementptr inbounds nuw %struct.IndexScanDescData, ptr %95, i32 0, i32 24
  store ptr %94, ptr %96, align 8
  %97 = load i8, ptr %12, align 1, !range !4, !noundef !5
  %98 = trunc i8 %97 to i1
  %99 = load ptr, ptr %13, align 8
  %100 = getelementptr inbounds nuw %struct.IndexScanDescData, ptr %99, i32 0, i32 8
  %101 = zext i1 %98 to i8
  store i8 %101, ptr %100, align 1
  %102 = load ptr, ptr %13, align 8
  call void @llvm.lifetime.end.p0(i64 8, ptr %13) #7
  ret ptr %102
}