; Function Attrs: nounwind uwtable
define internal fastcc ptr @index_beginscan_internal(ptr noundef %0, i32 noundef %1, i32 noundef %2, ptr noundef %3, ptr noundef %4, i1 noundef zeroext %5) unnamed_addr #0 {
  %7 = getelementptr inbounds nuw i8, ptr %0, i64 72
  %8 = load i32, ptr %7, align 8
  %9 = tail call zeroext i1 @ReindexIsProcessingIndex(i32 noundef %8) #7
  br i1 %9, label %10, label %17, !prof !4

10:                                               ; preds = %6
  %11 = tail call zeroext i1 @errstart_cold(i32 noundef 21, ptr noundef null) #8
  tail call void @llvm.assume(i1 %11)
  %12 = tail call i32 @errcode(i32 noundef 1088) #7
  %13 = getelementptr inbounds nuw i8, ptr %0, i64 56
  %14 = load ptr, ptr %13, align 8
  %15 = getelementptr inbounds nuw i8, ptr %14, i64 4
  %16 = tail call i32 (ptr, ...) @errmsg(ptr noundef nonnull @.str, ptr noundef nonnull %15) #7
  tail call void @errfinish(ptr noundef nonnull @.str.1, i32 noundef 316, ptr noundef nonnull @__func__.index_beginscan_internal) #7
  unreachable

17:                                               ; preds = %6
  %18 = getelementptr inbounds nuw i8, ptr %0, i64 352
  %19 = load ptr, ptr %18, align 8
  %20 = getelementptr inbounds nuw i8, ptr %19, i64 144
  %21 = load ptr, ptr %20, align 8
  %22 = icmp eq ptr %21, null
  br i1 %22, label %23, label %29

23:                                               ; preds = %17
  %24 = tail call zeroext i1 @errstart_cold(i32 noundef 21, ptr noundef null) #8
  tail call void @llvm.assume(i1 %24)
  %25 = getelementptr inbounds nuw i8, ptr %0, i64 56
  %26 = load ptr, ptr %25, align 8
  %27 = getelementptr inbounds nuw i8, ptr %26, i64 4
  %28 = tail call i32 (ptr, ...) @errmsg_internal(ptr noundef nonnull @.str.2, ptr noundef nonnull @.str.16, ptr noundef nonnull %27) #7
  tail call void @errfinish(ptr noundef nonnull @.str.1, i32 noundef 317, ptr noundef nonnull @__func__.index_beginscan_internal) #7
  unreachable

29:                                               ; preds = %17
  %30 = getelementptr inbounds nuw i8, ptr %19, i64 20
  %31 = load i8, ptr %30, align 4, !range !5, !noundef !6
  %32 = trunc nuw i8 %31 to i1
  br i1 %32, label %34, label %33

33:                                               ; preds = %29
  tail call void @PredicateLockRelation(ptr noundef nonnull %0, ptr noundef %3) #7
  br label %34

34:                                               ; preds = %33, %29
  %35 = zext i1 %5 to i8
  tail call void @RelationIncrementReferenceCount(ptr noundef nonnull %0) #7
  %36 = load ptr, ptr %18, align 8
  %37 = getelementptr inbounds nuw i8, ptr %36, i64 144
  %38 = load ptr, ptr %37, align 8
  %39 = tail call ptr %38(ptr noundef nonnull %0, i32 noundef %1, i32 noundef %2) #7
  %40 = getelementptr inbounds nuw i8, ptr %39, i64 144
  store ptr %4, ptr %40, align 8
  %41 = getelementptr inbounds nuw i8, ptr %39, i64 49
  store i8 %35, ptr %41, align 1
  ret ptr %39
}